target datalayout = "e-m:e-p270:32:32-p271:32:32-p272:64:64-i64:64-i128:128-f80:128-n8:16:32:64-S128"
target triple = "x86_64-pc-linux-gnu"

%struct.AVFilterFormatsConfig = type { ptr, ptr, ptr, ptr, ptr }

@query_formats.sample_fmts = internal constant [2 x i32] [i32 8, i32 -1], align 4
@query_formats.pix_fmts = internal constant [4 x i32] [i32 5, i32 14, i32 79, i32 -1], align 16

; Function Attrs: nounwind uwtable
define internal i32 @query_formats(ptr noundef %0, ptr noundef %1, ptr noundef %2) #1 {
  %4 = alloca i32, align 4
  %5 = alloca ptr, align 8
  %6 = alloca ptr, align 8
  %7 = alloca ptr, align 8
  %8 = alloca ptr, align 8
  %9 = alloca i32, align 4
  %10 = alloca i32, align 4
  store ptr %0, ptr %5, align 8, !tbaa !4
  store ptr %1, ptr %6, align 8, !tbaa !44
  store ptr %2, ptr %7, align 8, !tbaa !44
  call void @llvm.lifetime.start.p0(i64 8, ptr %8) #12
  store ptr null, ptr %8, align 8, !tbaa !46
  call void @llvm.lifetime.start.p0(i64 4, ptr %9) #12
  %11 = call ptr @ff_make_format_list(ptr noundef @query_formats.sample_fmts)
  store ptr %11, ptr %8, align 8, !tbaa !46
  %12 = load ptr, ptr %8, align 8, !tbaa !46
  %13 = load ptr, ptr %6, align 8, !tbaa !44
  %14 = getelementptr inbounds ptr, ptr %13, i64 0
  %15 = load ptr, ptr %14, align 8, !tbaa !48
  %16 = getelementptr inbounds nuw %struct.AVFilterFormatsConfig, ptr %15, i32 0, i32 0
  %17 = call i32 @ff_formats_ref(ptr noundef %12, ptr noundef %16)
  store i32 %17, ptr %9, align 4, !tbaa !35
  %18 = icmp slt i32 %17, 0
  br i1 %18, label %19, label %21

19:                                               ; preds = %3
  %20 = load i32, ptr %9, align 4, !tbaa !35
  store i32 %20, ptr %4, align 4
  store i32 1, ptr %10, align 4
  br label %33

21:                                               ; preds = %3
  %22 = call ptr @ff_make_format_list(ptr noundef @query_formats.pix_fmts)
  store ptr %22, ptr %8, align 8, !tbaa !46
  %23 = load ptr, ptr %8, align 8, !tbaa !46
  %24 = load ptr, ptr %7, align 8, !tbaa !44
  %25 = getelementptr inbounds ptr, ptr %24, i64 0
  %26 = load ptr, ptr %25, align 8, !tbaa !48
  %27 = getelementptr inbounds nuw %struct.AVFilterFormatsConfig, ptr %26, i32 0, i32 0
  %28 = call i32 @ff_formats_ref(ptr noundef %23, ptr noundef %27)
  store i32 %28, ptr %9, align 4, !tbaa !35
  %29 = icmp slt i32 %28, 0
  br i1 %29, label %30, label %32

30:                                               ; preds = %21
  %31 = load i32, ptr %9, align 4, !tbaa !35
  store i32 %31, ptr %4, align 4
  store i32 1, ptr %10, align 4
  br label %33

32:                                               ; preds = %21
  store i32 0, ptr %4, align 4
  store i32 1, ptr %10, align 4
  br label %33

33:                                               ; preds = %32, %30, %19
  call void @llvm.lifetime.end.p0(i64 4, ptr %9) #12
  call void @llvm.lifetime.end.p0(i64 8, ptr %8) #12
  %34 = load i32, ptr %4, align 4
  ret i32 %34
}